#include <math.h>
#include <stdio.h>
#include <stdlib.h>
#include <string.h>
#include <iostream>
using namespace std;

/*
 * 37.cpp
 *
 *  Created on: 2013-12-22
 *      Author: Administrator
 */
int main()
{
	int i,j,s,ii,ss,kk;
	char a[1000];
	cin>>a;
	s=strlen(a);
	for(i=2;i<=s;i++)
	{
		ss=0;
		for(j=0;j+i<=s;j++)
		{
			for(ii=0;ii<=i-1;ii++)
			 if(a[j+ii]==a[j+i-1-ii])
            	 ss=1;
             else
             {
            	 ss=0; break;
             }
			if(ss==1)
				for(kk=0;kk<i;kk++)
					cout<<a[j+kk];
			if(ss==1)
				cout<<endl;
		}
	}
	return 0;
}
/*
 * ?????????????????
???????????????????????????
??? abba   cccdeedccc???????

????????????????2
????
????????????????500??
???
abcddcbaab
????
??????????????????????
?????????????????????????????
????abcddcbaab
???
dd
aa
cddc
baab
bcddcb
abcddcba
????
123321125775165561
????
33

11

77

55

2332

2112

5775

6556

123321

165561

??
(??????????)
 */
